target datalayout = "e-m:e-p270:32:32-p271:32:32-p272:64:64-i64:64-i128:128-f80:128-n8:16:32:64-S128"
target triple = "x86_64-pc-linux-gnu"

%struct.LogicalDecodingContext = type { ptr, ptr, ptr, ptr, ptr, i8, %struct.OutputPluginCallbacks, %struct.OutputPluginOptions, ptr, ptr, ptr, ptr, ptr, ptr, ptr, i8, i8, i8, i8, i8, i64, i32, i8, i8 }
%struct.OutputPluginCallbacks = type { ptr, ptr, ptr, ptr, ptr, ptr, ptr, ptr, ptr, ptr, ptr, ptr, ptr, ptr, ptr, ptr, ptr, ptr, ptr, ptr, ptr }
%struct.OutputPluginOptions = type { i32, i8 }
%struct.ReorderBuffer = type { ptr, %struct.dlist_head, %struct.dlist_head, %struct.dclist_head, i32, ptr, ptr, ptr, ptr, ptr, ptr, ptr, ptr, ptr, ptr, ptr, ptr, ptr, ptr, ptr, ptr, ptr, ptr, ptr, ptr, i8, ptr, ptr, ptr, ptr, i64, ptr, i64, i64, ptr, i64, i64, i64, i64, i64, i64, i64, i64 }
%struct.dlist_head = type { %struct.dlist_node }
%struct.dlist_node = type { ptr, ptr }
%struct.dclist_head = type { %struct.dlist_head, i32 }
%struct.LogicalErrorCallbackState = type { ptr, ptr, i64 }
%struct.ErrorContextCallback = type { ptr, ptr, ptr }
%struct.ReorderBufferTXN = type { i32, i32, i32, ptr, i64, i64, i64, ptr, i64, i16, i64, %union.anon, ptr, i64, %struct.dlist_node, ptr, i32, i64, i64, %struct.dlist_head, %struct.dlist_head, i64, ptr, ptr, %struct.dlist_head, i32, i32, ptr, %struct.dlist_node, %struct.dlist_node, %struct.pairingheap_node, i64, i64, ptr }
%union.anon = type { i64 }
%struct.pairingheap_node = type { ptr, ptr, ptr }

@.str.1 = private unnamed_addr constant [10 x i8] c"logical.c\00", align 1
@error_context_stack = external global ptr, align 8
@.str.43 = private unnamed_addr constant [41 x i8] c"logical streaming requires a %s callback\00", align 1
@.str.45 = private unnamed_addr constant [12 x i8] c"stream_stop\00", align 1
@.str.46 = private unnamed_addr constant [15 x i8] c"stream_stop_cb\00", align 1
@__func__.stream_stop_cb_wrapper = private unnamed_addr constant [23 x i8] c"stream_stop_cb_wrapper\00", align 1

; Function Attrs: nounwind uwtable
define internal void @stream_stop_cb_wrapper(ptr noundef %0, ptr noundef %1, i64 noundef %2) #0 {
  %4 = alloca ptr, align 8
  %5 = alloca ptr, align 8
  %6 = alloca i64, align 8
  %7 = alloca ptr, align 8
  %8 = alloca %struct.LogicalErrorCallbackState, align 8
  %9 = alloca %struct.ErrorContextCallback, align 8
  store ptr %0, ptr %4, align 8
  store ptr %1, ptr %5, align 8
  store i64 %2, ptr %6, align 8
  call void @llvm.lifetime.start.p0(i64 8, ptr %7) #10
  %10 = load ptr, ptr %4, align 8
  %11 = getelementptr inbounds nuw %struct.ReorderBuffer, ptr %10, i32 0, i32 24
  %12 = load ptr, ptr %11, align 8
  store ptr %12, ptr %7, align 8
  call void @llvm.lifetime.start.p0(i64 24, ptr %8) #10
  call void @llvm.lifetime.start.p0(i64 24, ptr %9) #10
  %13 = load ptr, ptr %7, align 8
  %14 = getelementptr inbounds nuw %struct.LogicalErrorCallbackState, ptr %8, i32 0, i32 0
  store ptr %13, ptr %14, align 8
  %15 = getelementptr inbounds nuw %struct.LogicalErrorCallbackState, ptr %8, i32 0, i32 1
  store ptr @.str.45, ptr %15, align 8
  %16 = load i64, ptr %6, align 8
  %17 = getelementptr inbounds nuw %struct.LogicalErrorCallbackState, ptr %8, i32 0, i32 2
  store i64 %16, ptr %17, align 8
  %18 = getelementptr inbounds nuw %struct.ErrorContextCallback, ptr %9, i32 0, i32 1
  store ptr @output_plugin_error_callback, ptr %18, align 8
  %19 = getelementptr inbounds nuw %struct.ErrorContextCallback, ptr %9, i32 0, i32 2
  store ptr %8, ptr %19, align 8
  %20 = load ptr, ptr @error_context_stack, align 8
  %21 = getelementptr inbounds nuw %struct.ErrorContextCallback, ptr %9, i32 0, i32 0
  store ptr %20, ptr %21, align 8
  store ptr %9, ptr @error_context_stack, align 8
  %22 = load ptr, ptr %7, align 8
  %23 = getelementptr inbounds nuw %struct.LogicalDecodingContext, ptr %22, i32 0, i32 18
  store i8 1, ptr %23, align 1
  %24 = load ptr, ptr %5, align 8
  %25 = getelementptr inbounds nuw %struct.ReorderBufferTXN, ptr %24, i32 0, i32 1
  %26 = load i32, ptr %25, align 4
  %27 = load ptr, ptr %7, align 8
  %28 = getelementptr inbounds nuw %struct.LogicalDecodingContext, ptr %27, i32 0, i32 21
  store i32 %26, ptr %28, align 8
  %29 = load i64, ptr %6, align 8
  %30 = load ptr, ptr %7, align 8
  %31 = getelementptr inbounds nuw %struct.LogicalDecodingContext, ptr %30, i32 0, i32 20
  store i64 %29, ptr %31, align 8
  %32 = load ptr, ptr %7, align 8
  %33 = getelementptr inbounds nuw %struct.LogicalDecodingContext, ptr %32, i32 0, i32 22
  store i8 0, ptr %33, align 4
  %34 = load ptr, ptr %7, align 8
  %35 = getelementptr inbounds nuw %struct.LogicalDecodingContext, ptr %34, i32 0, i32 6
  %36 = getelementptr inbounds nuw %struct.OutputPluginCallbacks, ptr %35, i32 0, i32 14
  %37 = load ptr, ptr %36, align 8
  %38 = icmp eq ptr %37, null
  br i1 %38, label %39, label %51

39:                                               ; preds = %3
  br label %40

40:                                               ; preds = %39
  br i1 true, label %41, label %43

41:                                               ; preds = %40
  %42 = call zeroext i1 @errstart_cold(i32 noundef 21, ptr noundef null) #9
  br i1 %42, label %45, label %48

43:                                               ; preds = %40
  %44 = call zeroext i1 @errstart(i32 noundef 21, ptr noundef null)
  br i1 %44, label %45, label %48

45:                                               ; preds = %43, %41
  %46 = call i32 @errcode(i32 noundef 325)
  %47 = call i32 (ptr, ...) @errmsg(ptr noundef @.str.43, ptr noundef @.str.46)
  call void @errfinish(ptr noundef @.str.1, i32 noundef 1354, ptr noundef @__func__.stream_stop_cb_wrapper)
  br label %48

48:                                               ; preds = %45, %43, %41
  unreachable

49:                                               ; No predecessors!
  br label %50

50:                                               ; preds = %49
  br label %51

51:                                               ; preds = %50, %3
  %52 = load ptr, ptr %7, align 8
  %53 = getelementptr inbounds nuw %struct.LogicalDecodingContext, ptr %52, i32 0, i32 6
  %54 = getelementptr inbounds nuw %struct.OutputPluginCallbacks, ptr %53, i32 0, i32 14
  %55 = load ptr, ptr %54, align 8
  %56 = load ptr, ptr %7, align 8
  %57 = load ptr, ptr %5, align 8
  call void %55(ptr noundef %56, ptr noundef %57)
  %58 = getelementptr inbounds nuw %struct.ErrorContextCallback, ptr %9, i32 0, i32 0
  %59 = load ptr, ptr %58, align 8
  store ptr %59, ptr @error_context_stack, align 8
  call void @llvm.lifetime.end.p0(i64 24, ptr %9) #10
  call void @llvm.lifetime.end.p0(i64 24, ptr %8) #10
  call void @llvm.lifetime.end.p0(i64 8, ptr %7) #10
  ret void
}