; Function Attrs: nounwind uwtable
define internal void @stream_stop_cb_wrapper(ptr noundef readonly captures(none) %0, ptr noundef %1, i64 noundef %2) #0 {
  %4 = alloca %struct.LogicalErrorCallbackState, align 8
  %5 = alloca %struct.ErrorContextCallback, align 8
  %6 = getelementptr inbounds nuw i8, ptr %0, i64 224
  %7 = load ptr, ptr %6, align 8
  call void @llvm.lifetime.start.p0(i64 24, ptr nonnull %4) #10
  call void @llvm.lifetime.start.p0(i64 24, ptr nonnull %5) #10
  store ptr %7, ptr %4, align 8
  %8 = getelementptr inbounds nuw i8, ptr %4, i64 8
  store ptr @.str.45, ptr %8, align 8
  %9 = getelementptr inbounds nuw i8, ptr %4, i64 16
  store i64 %2, ptr %9, align 8
  %10 = getelementptr inbounds nuw i8, ptr %5, i64 8
  store ptr @output_plugin_error_callback, ptr %10, align 8
  %11 = getelementptr inbounds nuw i8, ptr %5, i64 16
  store ptr %4, ptr %11, align 8
  %12 = load ptr, ptr @error_context_stack, align 8
  store ptr %12, ptr %5, align 8
  store ptr %5, ptr @error_context_stack, align 8
  %13 = getelementptr inbounds nuw i8, ptr %7, i64 283
  store i8 1, ptr %13, align 1
  %14 = getelementptr inbounds nuw i8, ptr %1, i64 4
  %15 = load i32, ptr %14, align 4
  %16 = getelementptr inbounds nuw i8, ptr %7, i64 296
  store i32 %15, ptr %16, align 8
  %17 = getelementptr inbounds nuw i8, ptr %7, i64 288
  store i64 %2, ptr %17, align 8
  %18 = getelementptr inbounds nuw i8, ptr %7, i64 300
  store i8 0, ptr %18, align 4
  %19 = getelementptr inbounds nuw i8, ptr %7, i64 160
  %20 = load ptr, ptr %19, align 8
  %21 = icmp eq ptr %20, null
  br i1 %21, label %22, label %26

22:                                               ; preds = %3
  %23 = call zeroext i1 @errstart_cold(i32 noundef 21, ptr noundef null) #11
  call void @llvm.assume(i1 %23)
  %24 = call i32 @errcode(i32 noundef 325) #10
  %25 = call i32 (ptr, ...) @errmsg(ptr noundef nonnull @.str.43, ptr noundef nonnull @.str.46) #10
  call void @errfinish(ptr noundef nonnull @.str.1, i32 noundef 1354, ptr noundef nonnull @__func__.stream_stop_cb_wrapper) #10
  unreachable

26:                                               ; preds = %3
  call void %20(ptr noundef nonnull %7, ptr noundef nonnull %1) #10
  %27 = load ptr, ptr %5, align 8
  store ptr %27, ptr @error_context_stack, align 8
  call void @llvm.lifetime.end.p0(i64 24, ptr nonnull %5) #10
  call void @llvm.lifetime.end.p0(i64 24, ptr nonnull %4) #10
  ret void
}